target datalayout = "e-m:e-p270:32:32-p271:32:32-p272:64:64-i64:64-i128:128-f80:128-n8:16:32:64-S128"
target triple = "x86_64-pc-linux-gnu"

%"class.llvm::ilist_iterator_w_bits" = type <{ ptr, i8, i8, [6 x i8] }>
%"class.llvm::ilist_detail::node_base_prevnext" = type { ptr, ptr }
%"class.llvm::ilist_detail::node_base_parent" = type { ptr }

; Function Attrs: mustprogress nounwind uwtable
define linkonce_odr hidden noundef ptr @_ZNK4llvm12ilist_detail18node_base_prevnextINS_15ilist_node_baseILb0ENS_10BasicBlockEEELb0EE7getPrevEv(ptr noundef nonnull align 8 dereferenceable(16) %0) #0 comdat align 2 {
  %2 = alloca ptr, align 8
  store ptr %0, ptr %2, align 8
  %3 = load ptr, ptr %2, align 8
  %4 = getelementptr inbounds nuw %"class.llvm::ilist_detail::node_base_prevnext", ptr %3, i32 0, i32 0
  %5 = load ptr, ptr %4, align 8
  ret ptr %5
}

; Function Attrs: mustprogress nounwind uwtable
define linkonce_odr hidden noundef ptr @_ZNK4llvm12ilist_detail18node_base_prevnextINS_15ilist_node_baseILb0ENS_10BasicBlockEEELb0EE7getNextEv(ptr noundef nonnull align 8 dereferenceable(16) %0) #0 comdat align 2 {
  %2 = alloca ptr, align 8
  store ptr %0, ptr %2, align 8
  %3 = load ptr, ptr %2, align 8
  %4 = getelementptr inbounds nuw %"class.llvm::ilist_detail::node_base_prevnext", ptr %3, i32 0, i32 1
  %5 = load ptr, ptr %4, align 8
  ret ptr %5
}

; Function Attrs: mustprogress nounwind uwtable
define linkonce_odr hidden noundef ptr @_ZN4llvm15ilist_node_implINS_12ilist_detail12node_optionsINS_11InstructionELb0ELb0EvLb1ENS_10BasicBlockEEEE7getPrevEv(ptr noundef nonnull align 8 dereferenceable(24) %0) #0 comdat align 2 {
  %2 = alloca ptr, align 8
  store ptr %0, ptr %2, align 8
  %3 = load ptr, ptr %2, align 8
  %4 = call noundef ptr @_ZNK4llvm12ilist_detail18node_base_prevnextINS_15ilist_node_baseILb0ENS_10BasicBlockEEELb0EE7getPrevEv(ptr noundef nonnull align 8 dereferenceable(16) %3)
  ret ptr %4
}

; Function Attrs: mustprogress nounwind uwtable
define linkonce_odr hidden noundef ptr @_ZN4llvm15ilist_node_implINS_12ilist_detail12node_optionsINS_11InstructionELb0ELb0EvLb1ENS_10BasicBlockEEEE7getNextEv(ptr noundef nonnull align 8 dereferenceable(24) %0) #0 comdat align 2 {
  %2 = alloca ptr, align 8
  store ptr %0, ptr %2, align 8
  %3 = load ptr, ptr %2, align 8
  %4 = call noundef ptr @_ZNK4llvm12ilist_detail18node_base_prevnextINS_15ilist_node_baseILb0ENS_10BasicBlockEEELb0EE7getNextEv(ptr noundef nonnull align 8 dereferenceable(16) %3)
  ret ptr %4
}

; Function Attrs: mustprogress nounwind uwtable
define linkonce_odr hidden noundef nonnull align 8 dereferenceable(10) ptr @_ZN4llvm21ilist_iterator_w_bitsINS_12ilist_detail12node_optionsINS_11InstructionELb0ELb0EvLb1ENS_10BasicBlockEEELb0ELb0EEmmEv(ptr noundef nonnull align 8 dereferenceable(10) %0) #0 comdat align 2 {
  %2 = alloca ptr, align 8
  store ptr %0, ptr %2, align 8
  %3 = load ptr, ptr %2, align 8
  %4 = getelementptr inbounds nuw %"class.llvm::ilist_iterator_w_bits", ptr %3, i32 0, i32 0
  %5 = load ptr, ptr %4, align 8
  %6 = call noundef ptr @_ZN4llvm15ilist_node_implINS_12ilist_detail12node_optionsINS_11InstructionELb0ELb0EvLb1ENS_10BasicBlockEEEE7getPrevEv(ptr noundef nonnull align 8 dereferenceable(24) %5)
  %7 = getelementptr inbounds nuw %"class.llvm::ilist_iterator_w_bits", ptr %3, i32 0, i32 0
  store ptr %6, ptr %7, align 8
  %8 = getelementptr inbounds nuw %"class.llvm::ilist_iterator_w_bits", ptr %3, i32 0, i32 1
  store i8 0, ptr %8, align 8
  %9 = getelementptr inbounds nuw %"class.llvm::ilist_iterator_w_bits", ptr %3, i32 0, i32 2
  store i8 0, ptr %9, align 1
  ret ptr %3
}

; Function Attrs: mustprogress nounwind uwtable
define linkonce_odr hidden noundef nonnull align 8 dereferenceable(10) ptr @_ZN4llvm21ilist_iterator_w_bitsINS_12ilist_detail12node_optionsINS_11InstructionELb0ELb0EvLb1ENS_10BasicBlockEEELb0ELb0EEppEv(ptr noundef nonnull align 8 dereferenceable(10) %0) #0 comdat align 2 {
  %2 = alloca ptr, align 8
  store ptr %0, ptr %2, align 8
  %3 = load ptr, ptr %2, align 8
  %4 = getelementptr inbounds nuw %"class.llvm::ilist_iterator_w_bits", ptr %3, i32 0, i32 0
  %5 = load ptr, ptr %4, align 8
  %6 = call noundef ptr @_ZN4llvm15ilist_node_implINS_12ilist_detail12node_optionsINS_11InstructionELb0ELb0EvLb1ENS_10BasicBlockEEEE7getNextEv(ptr noundef nonnull align 8 dereferenceable(24) %5)
  %7 = getelementptr inbounds nuw %"class.llvm::ilist_iterator_w_bits", ptr %3, i32 0, i32 0
  store ptr %6, ptr %7, align 8
  %8 = getelementptr inbounds nuw %"class.llvm::ilist_iterator_w_bits", ptr %3, i32 0, i32 1
  store i8 0, ptr %8, align 8
  %9 = getelementptr inbounds nuw %"class.llvm::ilist_iterator_w_bits", ptr %3, i32 0, i32 2
  store i8 0, ptr %9, align 1
  ret ptr %3
}

; Function Attrs: mustprogress nounwind uwtable
define linkonce_odr void @_ZSt9__advanceIN4llvm21ilist_iterator_w_bitsINS0_12ilist_detail12node_optionsINS0_11InstructionELb0ELb0EvLb1ENS0_10BasicBlockEEELb0ELb0EEElEvRT_T0_St26bidirectional_iterator_tag(ptr noundef nonnull align 8 dereferenceable(10) %0, i64 noundef %1) #0 comdat {
  %3 = alloca ptr, align 8
  %4 = alloca i64, align 8
  store ptr %0, ptr %3, align 8
  store i64 %1, ptr %4, align 8
  %5 = load i64, ptr %4, align 8
  %6 = icmp sgt i64 %5, 0
  br i1 %6, label %7, label %16

7:                                                ; preds = %2
  br label %8

8:                                                ; preds = %12, %7
  %9 = load i64, ptr %4, align 8
  %10 = add nsw i64 %9, -1
  store i64 %10, ptr %4, align 8
  %11 = icmp ne i64 %9, 0
  br i1 %11, label %12, label %15

12:                                               ; preds = %8
  %13 = load ptr, ptr %3, align 8
  %14 = call noundef nonnull align 8 dereferenceable(10) ptr @_ZN4llvm21ilist_iterator_w_bitsINS_12ilist_detail12node_optionsINS_11InstructionELb0ELb0EvLb1ENS_10BasicBlockEEELb0ELb0EEppEv(ptr noundef nonnull align 8 dereferenceable(10) %13)
  br label %8, !llvm.loop !12

15:                                               ; preds = %8
  br label %25

16:                                               ; preds = %2
  br label %17

17:                                               ; preds = %21, %16
  %18 = load i64, ptr %4, align 8
  %19 = add nsw i64 %18, 1
  store i64 %19, ptr %4, align 8
  %20 = icmp ne i64 %18, 0
  br i1 %20, label %21, label %24

21:                                               ; preds = %17
  %22 = load ptr, ptr %3, align 8
  %23 = call noundef nonnull align 8 dereferenceable(10) ptr @_ZN4llvm21ilist_iterator_w_bitsINS_12ilist_detail12node_optionsINS_11InstructionELb0ELb0EvLb1ENS_10BasicBlockEEELb0ELb0EEmmEv(ptr noundef nonnull align 8 dereferenceable(10) %22)
  br label %17, !llvm.loop !13

24:                                               ; preds = %17
  br label %25

25:                                               ; preds = %24, %15
  ret void
}

; Function Attrs: mustprogress nounwind uwtable
define linkonce_odr void @_ZSt19__iterator_categoryIN4llvm21ilist_iterator_w_bitsINS0_12ilist_detail12node_optionsINS0_11InstructionELb0ELb0EvLb1ENS0_10BasicBlockEEELb0ELb0EEEENSt15iterator_traitsIT_E17iterator_categoryERKS9_(ptr noundef nonnull align 8 dereferenceable(10) %0) #0 comdat {
  %2 = alloca ptr, align 8
  store ptr %0, ptr %2, align 8
  ret void
}

; Function Attrs: mustprogress nounwind uwtable
define linkonce_odr hidden noundef ptr @_ZN4llvm12ilist_detail16node_base_parentINS_10BasicBlockEE17getNodeBaseParentEv(ptr noundef nonnull align 8 dereferenceable(8) %0) #0 comdat align 2 {
  %2 = alloca ptr, align 8
  store ptr %0, ptr %2, align 8
  %3 = load ptr, ptr %2, align 8
  %4 = getelementptr inbounds nuw %"class.llvm::ilist_detail::node_base_parent", ptr %3, i32 0, i32 0
  %5 = load ptr, ptr %4, align 8
  ret ptr %5
}

; Function Attrs: mustprogress nounwind uwtable
define linkonce_odr void @_ZSt7advanceIN4llvm21ilist_iterator_w_bitsINS0_12ilist_detail12node_optionsINS0_11InstructionELb0ELb0EvLb1ENS0_10BasicBlockEEELb0ELb0EEElEvRT_T0_(ptr noundef nonnull align 8 dereferenceable(10) %0, i64 noundef %1) #0 comdat {
  %3 = alloca ptr, align 8
  %4 = alloca i64, align 8
  %5 = alloca i64, align 8
  store ptr %0, ptr %3, align 8
  store i64 %1, ptr %4, align 8
  %6 = load i64, ptr %4, align 8
  store i64 %6, ptr %5, align 8
  %7 = load ptr, ptr %3, align 8
  %8 = load i64, ptr %5, align 8
  %9 = load ptr, ptr %3, align 8
  call void @_ZSt19__iterator_categoryIN4llvm21ilist_iterator_w_bitsINS0_12ilist_detail12node_optionsINS0_11InstructionELb0ELb0EvLb1ENS0_10BasicBlockEEELb0ELb0EEEENSt15iterator_traitsIT_E17iterator_categoryERKS9_(ptr noundef nonnull align 8 dereferenceable(10) %9)
  call void @_ZSt9__advanceIN4llvm21ilist_iterator_w_bitsINS0_12ilist_detail12node_optionsINS0_11InstructionELb0ELb0EvLb1ENS0_10BasicBlockEEELb0ELb0EEElEvRT_T0_St26bidirectional_iterator_tag(ptr noundef nonnull align 8 dereferenceable(10) %7, i64 noundef %8)
  ret void
}

; Function Attrs: mustprogress nounwind uwtable
define linkonce_odr hidden void @_ZN4llvm21ilist_iterator_w_bitsINS_12ilist_detail12node_optionsINS_11InstructionELb0ELb0EvLb1ENS_10BasicBlockEEELb0ELb0EEC2ERNS_15ilist_node_implIS5_EE(ptr noundef nonnull align 8 dereferenceable(10) %0, ptr noundef nonnull align 8 dereferenceable(24) %1) unnamed_addr #0 comdat align 2 {
  %3 = alloca ptr, align 8
  %4 = alloca ptr, align 8
  store ptr %0, ptr %3, align 8
  store ptr %1, ptr %4, align 8
  %5 = load ptr, ptr %3, align 8
  %6 = getelementptr inbounds nuw %"class.llvm::ilist_iterator_w_bits", ptr %5, i32 0, i32 0
  %7 = load ptr, ptr %4, align 8
  store ptr %7, ptr %6, align 8
  %8 = getelementptr inbounds nuw %"class.llvm::ilist_iterator_w_bits", ptr %5, i32 0, i32 1
  store i8 0, ptr %8, align 8
  %9 = getelementptr inbounds nuw %"class.llvm::ilist_iterator_w_bits", ptr %5, i32 0, i32 2
  store i8 0, ptr %9, align 1
  ret void
}

; Function Attrs: mustprogress nounwind uwtable
define linkonce_odr hidden noundef ptr @_ZN4llvm12ilist_detail18node_parent_accessINS_15ilist_node_implINS0_12node_optionsINS_11InstructionELb0ELb0EvLb1ENS_10BasicBlockEEEEES5_E9getParentEv(ptr noundef nonnull align 1 dereferenceable(1) %0) #0 comdat align 2 {
  %2 = alloca ptr, align 8
  store ptr %0, ptr %2, align 8
  %3 = load ptr, ptr %2, align 8
  %4 = getelementptr inbounds i8, ptr %3, i64 16
  %5 = call noundef ptr @_ZN4llvm12ilist_detail16node_base_parentINS_10BasicBlockEE17getNodeBaseParentEv(ptr noundef nonnull align 8 dereferenceable(8) %4)
  ret ptr %5
}

; Function Attrs: mustprogress nounwind uwtable
define linkonce_odr hidden void @_ZNK4llvm21ilist_iterator_w_bitsINS_12ilist_detail12node_optionsINS_11InstructionELb0ELb0EvLb1ENS_10BasicBlockEEELb0ELb0EE10setHeadBitEb(ptr noundef nonnull align 8 dereferenceable(10) %0, i1 noundef zeroext %1) #0 comdat align 2 {
  %3 = alloca ptr, align 8
  %4 = alloca i8, align 1
  store ptr %0, ptr %3, align 8
  %5 = zext i1 %1 to i8
  store i8 %5, ptr %4, align 1
  %6 = load ptr, ptr %3, align 8
  %7 = load i8, ptr %4, align 1
  %8 = trunc i8 %7 to i1
  %9 = getelementptr inbounds nuw %"class.llvm::ilist_iterator_w_bits", ptr %6, i32 0, i32 1
  %10 = zext i1 %8 to i8
  store i8 %10, ptr %9, align 8
  ret void
}

; Function Attrs: mustprogress nounwind uwtable
define linkonce_odr { ptr, i64 } @_ZSt4nextIN4llvm21ilist_iterator_w_bitsINS0_12ilist_detail12node_optionsINS0_11InstructionELb0ELb0EvLb1ENS0_10BasicBlockEEELb0ELb0EEEET_S8_NSt15iterator_traitsIS8_E15difference_typeE(ptr %0, i64 %1, i64 noundef %2) #0 comdat {
  %4 = alloca %"class.llvm::ilist_iterator_w_bits", align 8
  %5 = alloca %"class.llvm::ilist_iterator_w_bits", align 8
  %6 = alloca i64, align 8
  %7 = getelementptr inbounds nuw { ptr, i64 }, ptr %5, i32 0, i32 0
  store ptr %0, ptr %7, align 8
  %8 = getelementptr inbounds nuw { ptr, i64 }, ptr %5, i32 0, i32 1
  store i64 %1, ptr %8, align 8
  store i64 %2, ptr %6, align 8
  %9 = load i64, ptr %6, align 8
  call void @_ZSt7advanceIN4llvm21ilist_iterator_w_bitsINS0_12ilist_detail12node_optionsINS0_11InstructionELb0ELb0EvLb1ENS0_10BasicBlockEEELb0ELb0EEElEvRT_T0_(ptr noundef nonnull align 8 dereferenceable(10) %5, i64 noundef %9)
  call void @llvm.memcpy.p0.p0.i64(ptr align 8 %4, ptr align 8 %5, i64 16, i1 false)
  %10 = load { ptr, i64 }, ptr %4, align 8
  ret { ptr, i64 } %10
}

; Function Attrs: mustprogress nounwind uwtable
define linkonce_odr hidden { ptr, i64 } @_ZN4llvm15ilist_node_implINS_12ilist_detail12node_optionsINS_11InstructionELb0ELb0EvLb1ENS_10BasicBlockEEEE11getIteratorEv(ptr noundef nonnull align 8 dereferenceable(24) %0) #0 comdat align 2 {
  %2 = alloca %"class.llvm::ilist_iterator_w_bits", align 8
  %3 = alloca ptr, align 8
  store ptr %0, ptr %3, align 8
  %4 = load ptr, ptr %3, align 8
  call void @_ZN4llvm21ilist_iterator_w_bitsINS_12ilist_detail12node_optionsINS_11InstructionELb0ELb0EvLb1ENS_10BasicBlockEEELb0ELb0EEC2ERNS_15ilist_node_implIS5_EE(ptr noundef nonnull align 8 dereferenceable(10) %2, ptr noundef nonnull align 8 dereferenceable(24) %4)
  %5 = load { ptr, i64 }, ptr %2, align 8
  ret { ptr, i64 } %5
}

; Function Attrs: mustprogress nounwind uwtable
define dso_local void @_ZN4llvm11Instruction9moveAfterEPS0_(ptr noundef nonnull align 8 dereferenceable(72) %0, ptr noundef %1) #0 align 2 {
  %3 = alloca ptr, align 8
  %4 = alloca ptr, align 8
  %5 = alloca %"class.llvm::ilist_iterator_w_bits", align 8
  %6 = alloca %"class.llvm::ilist_iterator_w_bits", align 8
  %7 = alloca { ptr, i64 }, align 8
  %8 = alloca { ptr, i64 }, align 8
  %9 = alloca %"class.llvm::ilist_iterator_w_bits", align 8
  store ptr %0, ptr %3, align 8
  store ptr %1, ptr %4, align 8
  %10 = load ptr, ptr %3, align 8
  %11 = load ptr, ptr %4, align 8
  %12 = getelementptr inbounds i8, ptr %11, i64 24
  %13 = call { ptr, i64 } @_ZN4llvm15ilist_node_implINS_12ilist_detail12node_optionsINS_11InstructionELb0ELb0EvLb1ENS_10BasicBlockEEEE11getIteratorEv(ptr noundef nonnull align 8 dereferenceable(24) %12)
  store { ptr, i64 } %13, ptr %7, align 8
  call void @llvm.memcpy.p0.p0.i64(ptr align 8 %6, ptr align 8 %7, i64 10, i1 false)
  %14 = getelementptr inbounds nuw { ptr, i64 }, ptr %6, i32 0, i32 0
  %15 = load ptr, ptr %14, align 8
  %16 = getelementptr inbounds nuw { ptr, i64 }, ptr %6, i32 0, i32 1
  %17 = load i64, ptr %16, align 8
  %18 = call { ptr, i64 } @_ZSt4nextIN4llvm21ilist_iterator_w_bitsINS0_12ilist_detail12node_optionsINS0_11InstructionELb0ELb0EvLb1ENS0_10BasicBlockEEELb0ELb0EEEET_S8_NSt15iterator_traitsIS8_E15difference_typeE(ptr %15, i64 %17, i64 noundef 1)
  store { ptr, i64 } %18, ptr %8, align 8
  call void @llvm.memcpy.p0.p0.i64(ptr align 8 %5, ptr align 8 %8, i64 10, i1 false)
  call void @_ZNK4llvm21ilist_iterator_w_bitsINS_12ilist_detail12node_optionsINS_11InstructionELb0ELb0EvLb1ENS_10BasicBlockEEELb0ELb0EE10setHeadBitEb(ptr noundef nonnull align 8 dereferenceable(10) %5, i1 noundef zeroext true)
  %19 = load ptr, ptr %4, align 8
  %20 = getelementptr inbounds i8, ptr %19, i64 24
  %21 = call noundef ptr @_ZN4llvm12ilist_detail18node_parent_accessINS_15ilist_node_implINS0_12node_optionsINS_11InstructionELb0ELb0EvLb1ENS_10BasicBlockEEEEES5_E9getParentEv(ptr noundef nonnull align 1 dereferenceable(1) %20)
  call void @llvm.memcpy.p0.p0.i64(ptr align 8 %9, ptr align 8 %5, i64 16, i1 false)
  %22 = getelementptr inbounds nuw { ptr, i64 }, ptr %9, i32 0, i32 0
  %23 = load ptr, ptr %22, align 8
  %24 = getelementptr inbounds nuw { ptr, i64 }, ptr %9, i32 0, i32 1
  %25 = load i64, ptr %24, align 8
  call void @_ZN4llvm11Instruction14moveBeforeImplERNS_10BasicBlockENS_21ilist_iterator_w_bitsINS_12ilist_detail12node_optionsIS0_Lb0ELb0EvLb1ES1_EELb0ELb0EEEb(ptr noundef nonnull align 8 dereferenceable(72) %10, ptr noundef nonnull align 8 dereferenceable(80) %21, ptr %23, i64 %25, i1 noundef zeroext false)
  ret void
}