; Function Attrs: mustprogress nounwind uwtable
define dso_local void @_ZN4llvm11Instruction9moveAfterEPS0_(ptr noundef nonnull align 8 dereferenceable(72) %0, ptr nocapture noundef readonly %1) local_unnamed_addr #3 align 2 {
.preheader.i.i.i:
  %2 = getelementptr inbounds i8, ptr %1, i64 32
  %3 = load ptr, ptr %2, align 8
  %4 = getelementptr inbounds i8, ptr %1, i64 40
  %5 = load ptr, ptr %4, align 8
  tail call void @_ZN4llvm11Instruction14moveBeforeImplERNS_10BasicBlockENS_21ilist_iterator_w_bitsINS_12ilist_detail12node_optionsIS0_Lb0ELb0EvLb1ES1_EELb0ELb0EEEb(ptr noundef nonnull align 8 dereferenceable(72) %0, ptr noundef nonnull align 8 dereferenceable(80) %5, ptr %3, i64 1, i1 noundef zeroext false)
  ret void
}